target datalayout = "e-m:e-p270:32:32-p271:32:32-p272:64:64-i64:64-i128:128-f80:128-n8:16:32:64-S128"
target triple = "x86_64-pc-linux-gnu"

%struct._typeobject = type { %struct.PyVarObject, ptr, i64, i64, ptr, i64, ptr, ptr, ptr, ptr, ptr, ptr, ptr, ptr, ptr, ptr, ptr, ptr, ptr, i64, ptr, ptr, ptr, ptr, i64, ptr, ptr, ptr, ptr, ptr, ptr, ptr, ptr, ptr, i64, ptr, ptr, ptr, ptr, ptr, ptr, ptr, ptr, ptr, ptr, ptr, i32, ptr, ptr, i8, i16 }
%struct.PyVarObject = type { %struct._object, i64 }
%struct._object = type { %union.anon, ptr }
%union.anon = type { i64 }
%struct.HeapCTypeVectorcallObject = type { %struct._object, i64 }

@.str.77 = private unnamed_addr constant [18 x i8] c"PyTuple_Check(op)\00", align 1
@.str.78 = private unnamed_addr constant [41 x i8] c"../cpython/Include/cpython/tupleobject.h\00", align 1
@PyLong_Type = external global %struct._typeobject, align 8
@.str.81 = private unnamed_addr constant [28 x i8] c"Py_TYPE(ob) != &PyLong_Type\00", align 1
@.str.82 = private unnamed_addr constant [28 x i8] c"../cpython/Include/object.h\00", align 1
@__PRETTY_FUNCTION__.Py_SIZE = private unnamed_addr constant [31 x i8] c"Py_ssize_t Py_SIZE(PyObject *)\00", align 1
@PyBool_Type = external global %struct._typeobject, align 8
@.str.83 = private unnamed_addr constant [28 x i8] c"Py_TYPE(ob) != &PyBool_Type\00", align 1
@PyExc_IndexError = external global ptr, align 8
@.str.142 = private unnamed_addr constant [42 x i8] c"HeapCTypeVectorcall() takes no arguments!\00", align 1
@__PRETTY_FUNCTION__.PyTuple_GET_SIZE = private unnamed_addr constant [40 x i8] c"Py_ssize_t PyTuple_GET_SIZE(PyObject *)\00", align 1

; Function Attrs: inlinehint nounwind uwtable
define internal i64 @Py_SIZE(ptr noundef %0) #4 {
  %2 = alloca ptr, align 8
  store ptr %0, ptr %2, align 8, !tbaa !3
  %3 = load ptr, ptr %2, align 8, !tbaa !3
  %4 = call ptr @_Py_TYPE(ptr noundef %3)
  %5 = icmp ne ptr %4, @PyLong_Type
  br i1 %5, label %6, label %7

6:                                                ; preds = %1
  br label %9

7:                                                ; preds = %1
  call void @__assert_fail(ptr noundef @.str.81, ptr noundef @.str.82, i32 noundef 282, ptr noundef @__PRETTY_FUNCTION__.Py_SIZE) #11
  unreachable

8:                                                ; No predecessors!
  br label %9

9:                                                ; preds = %8, %6
  %10 = load ptr, ptr %2, align 8, !tbaa !3
  %11 = call ptr @_Py_TYPE(ptr noundef %10)
  %12 = icmp ne ptr %11, @PyBool_Type
  br i1 %12, label %13, label %14

13:                                               ; preds = %9
  br label %16

14:                                               ; preds = %9
  call void @__assert_fail(ptr noundef @.str.83, ptr noundef @.str.82, i32 noundef 283, ptr noundef @__PRETTY_FUNCTION__.Py_SIZE) #11
  unreachable

15:                                               ; No predecessors!
  br label %16

16:                                               ; preds = %15, %13
  %17 = load ptr, ptr %2, align 8, !tbaa !3
  %18 = getelementptr inbounds nuw %struct.PyVarObject, ptr %17, i32 0, i32 1
  %19 = load i64, ptr %18, align 8, !tbaa !56
  ret i64 %19
}

; Function Attrs: inlinehint nounwind uwtable
define internal i32 @PyType_HasFeature(ptr noundef %0, i64 noundef %1) #4 {
  %3 = alloca ptr, align 8
  %4 = alloca i64, align 8
  %5 = alloca i64, align 8
  store ptr %0, ptr %3, align 8, !tbaa !25
  store i64 %1, ptr %4, align 8, !tbaa !53
  call void @llvm.lifetime.start.p0(i64 8, ptr %5) #9
  %6 = load ptr, ptr %3, align 8, !tbaa !25
  %7 = getelementptr inbounds nuw %struct._typeobject, ptr %6, i32 0, i32 19
  %8 = load i64, ptr %7, align 8, !tbaa !54
  store i64 %8, ptr %5, align 8, !tbaa !53
  %9 = load i64, ptr %5, align 8, !tbaa !53
  %10 = load i64, ptr %4, align 8, !tbaa !53
  %11 = and i64 %9, %10
  %12 = icmp ne i64 %11, 0
  %13 = zext i1 %12 to i32
  call void @llvm.lifetime.end.p0(i64 8, ptr %5) #9
  ret i32 %13
}

; Function Attrs: inlinehint nounwind uwtable
define internal ptr @_Py_TYPE(ptr noundef %0) #4 {
  %2 = alloca ptr, align 8
  store ptr %0, ptr %2, align 8, !tbaa !3
  %3 = load ptr, ptr %2, align 8, !tbaa !3
  %4 = getelementptr inbounds nuw %struct._object, ptr %3, i32 0, i32 1
  %5 = load ptr, ptr %4, align 8, !tbaa !55
  ret ptr %5
}

; Function Attrs: inlinehint nounwind uwtable
define internal i64 @PyTuple_GET_SIZE(ptr noundef %0) #4 {
  %2 = alloca ptr, align 8
  %3 = alloca ptr, align 8
  store ptr %0, ptr %2, align 8, !tbaa !3
  call void @llvm.lifetime.start.p0(i64 8, ptr %3) #9
  %4 = load ptr, ptr %2, align 8, !tbaa !3
  %5 = call ptr @_Py_TYPE(ptr noundef %4)
  %6 = call i32 @PyType_HasFeature(ptr noundef %5, i64 noundef 67108864)
  %7 = icmp ne i32 %6, 0
  br i1 %7, label %8, label %9

8:                                                ; preds = %1
  br label %11

9:                                                ; preds = %1
  call void @__assert_fail(ptr noundef @.str.77, ptr noundef @.str.78, i32 noundef 22, ptr noundef @__PRETTY_FUNCTION__.PyTuple_GET_SIZE) #11
  unreachable

10:                                               ; No predecessors!
  br label %11

11:                                               ; preds = %10, %8
  %12 = load ptr, ptr %2, align 8, !tbaa !3
  store ptr %12, ptr %3, align 8, !tbaa !20
  %13 = load ptr, ptr %3, align 8, !tbaa !20
  %14 = call i64 @Py_SIZE(ptr noundef %13)
  call void @llvm.lifetime.end.p0(i64 8, ptr %3) #9
  ret i64 %14
}

; Function Attrs: nounwind uwtable
define internal i32 @heapctype_vectorcall_init(ptr noundef %0, ptr noundef %1, ptr noundef %2) #0 {
  %4 = alloca i32, align 4
  %5 = alloca ptr, align 8
  %6 = alloca ptr, align 8
  %7 = alloca ptr, align 8
  %8 = alloca ptr, align 8
  store ptr %0, ptr %5, align 8, !tbaa !3
  store ptr %1, ptr %6, align 8, !tbaa !3
  store ptr %2, ptr %7, align 8, !tbaa !3
  %9 = load ptr, ptr %6, align 8, !tbaa !3
  %10 = call i64 @PyTuple_GET_SIZE(ptr noundef %9)
  %11 = icmp ne i64 %10, 0
  br i1 %11, label %15, label %12

12:                                               ; preds = %3
  %13 = load ptr, ptr %7, align 8, !tbaa !3
  %14 = icmp ne ptr %13, null
  br i1 %14, label %15, label %18

15:                                               ; preds = %12, %3
  %16 = load ptr, ptr @PyExc_IndexError, align 8, !tbaa !3
  %17 = call ptr (ptr, ptr, ...) @PyErr_Format(ptr noundef %16, ptr noundef @.str.142)
  store i32 -1, ptr %4, align 4
  br label %22

18:                                               ; preds = %12
  call void @llvm.lifetime.start.p0(i64 8, ptr %8) #9
  %19 = load ptr, ptr %5, align 8, !tbaa !3
  store ptr %19, ptr %8, align 8, !tbaa !20
  %20 = load ptr, ptr %8, align 8, !tbaa !20
  %21 = getelementptr inbounds nuw %struct.HeapCTypeVectorcallObject, ptr %20, i32 0, i32 1
  store i64 2, ptr %21, align 8, !tbaa !56
  store i32 0, ptr %4, align 4
  call void @llvm.lifetime.end.p0(i64 8, ptr %8) #9
  br label %22

22:                                               ; preds = %18, %15
  %23 = load i32, ptr %4, align 4
  ret i32 %23
}